target datalayout = "e-m:e-p270:32:32-p271:32:32-p272:64:64-i64:64-i128:128-f80:128-n8:16:32:64-S128"
target triple = "x86_64-pc-linux-gnu"

%struct.grpc_slice = type { ptr, %"union.grpc_slice::grpc_slice_data" }
%"union.grpc_slice::grpc_slice_data" = type { %"struct.grpc_slice::grpc_slice_data::grpc_slice_refcounted", [8 x i8] }
%"struct.grpc_slice::grpc_slice_data::grpc_slice_refcounted" = type { i64, ptr }
%struct.grpc_slice_buffer = type { ptr, ptr, i64, i64, i64, [6 x %struct.grpc_slice] }

; Function Attrs: mustprogress nounwind uwtable
define void @grpc_slice_buffer_init(ptr noundef %0) #6 {
  %2 = alloca ptr, align 8
  store ptr %0, ptr %2, align 8, !tbaa !10
  %3 = load ptr, ptr %2, align 8, !tbaa !10
  %4 = getelementptr inbounds nuw %struct.grpc_slice_buffer, ptr %3, i32 0, i32 2
  store i64 0, ptr %4, align 8, !tbaa !12
  %5 = load ptr, ptr %2, align 8, !tbaa !10
  %6 = getelementptr inbounds nuw %struct.grpc_slice_buffer, ptr %5, i32 0, i32 4
  store i64 0, ptr %6, align 8, !tbaa !23
  %7 = load ptr, ptr %2, align 8, !tbaa !10
  %8 = getelementptr inbounds nuw %struct.grpc_slice_buffer, ptr %7, i32 0, i32 3
  store i64 6, ptr %8, align 8, !tbaa !53
  %9 = load ptr, ptr %2, align 8, !tbaa !10
  %10 = getelementptr inbounds nuw %struct.grpc_slice_buffer, ptr %9, i32 0, i32 5
  %11 = getelementptr inbounds [6 x %struct.grpc_slice], ptr %10, i64 0, i64 0
  %12 = load ptr, ptr %2, align 8, !tbaa !10
  %13 = getelementptr inbounds nuw %struct.grpc_slice_buffer, ptr %12, i32 0, i32 1
  store ptr %11, ptr %13, align 8, !tbaa !18
  %14 = load ptr, ptr %2, align 8, !tbaa !10
  %15 = getelementptr inbounds nuw %struct.grpc_slice_buffer, ptr %14, i32 0, i32 0
  store ptr %11, ptr %15, align 8, !tbaa !54
  ret void
}