; Function Attrs: mustprogress nofree norecurse nosync nounwind willreturn memory(argmem: write) uwtable
define void @grpc_slice_buffer_init(ptr noundef initializes((16, 40)) %0) local_unnamed_addr #12 {
  %2 = getelementptr inbounds nuw i8, ptr %0, i64 16
  store i64 0, ptr %2, align 8, !tbaa !13
  %3 = getelementptr inbounds nuw i8, ptr %0, i64 32
  store i64 0, ptr %3, align 8, !tbaa !20
  %4 = getelementptr inbounds nuw i8, ptr %0, i64 24
  store i64 6, ptr %4, align 8, !tbaa !26
  %5 = getelementptr inbounds nuw i8, ptr %0, i64 40
  %6 = getelementptr inbounds nuw i8, ptr %0, i64 8
  store ptr %5, ptr %6, align 8, !tbaa !17
  store ptr %5, ptr %0, align 8, !tbaa !25
  ret void
}